(dp1
S'fence'
p2
(dp3
S'strong'
p4
(lp5
S'picket'
p6
aS'yard'
p7
aS'gate'
p8
aS'post'
p9
asS'weak'
p10
(lp11
S'chain'
p12
aS'wall'
p13
aS'rail'
p14
aS'barrier'
p15
assS'people'
p16
(dp17
g4
(lp18
S'crowd'
p19
aS'person'
p20
aS'friend'
p21
aS'place'
p22
asg10
(lp23
S'group'
p24
aS'human'
p25
aS'city'
p26
aS'population'
p27
assS'scientist'
p28
(dp29
g4
(lp30
S'doctor'
p31
aS'lab'
p32
aS'experiment'
p33
aS'chemistry'
p34
asg10
(lp35
S'biology'
p36
aS'science'
p37
aS'study'
p38
aS'rocket'
p39
assS'lobster'
p40
(dp41
g4
(lp42
S'crab'
p43
aS'seafood'
p44
aS'tail'
p45
aS'red'
p46
asg10
(lp47
S'claw'
p48
aS'shrimp'
p49
aS'sea'
p50
aS'dinner'
p51
assS'navigator'
p52
(dp53
g4
(lp54
S'ship'
p55
aS'pilot'
p56
aS'airplane'
p57
aS'boat'
p58
asg10
(lp59
S'sailor'
p60
aS'sea'
p61
aS'flight'
p62
aS'leader'
p63
assS'canvas'
p64
(dp65
g4
(lp66
S'tent'
p67
aS'shoes'
p68
aS'paint'
p69
aS'painting'
p70
asg10
(lp71
S'art'
p72
aS'bag'
p73
aS'picture'
p74
aS'oil'
p75
assS'tar'
p76
(dp77
g4
(lp78
S'road'
p79
aS'feather'
p80
aS'roof'
p81
aS'nicotine'
p82
asg10
(lp83
S'asphalt'
p84
aS'paper'
p85
aS'heel'
p86
aS'pitch'
p87
assS'scrap'
p88
(dp89
g4
(lp90
S'paper'
p91
aS'piece'
p92
aS'junk'
p93
aS'metal'
p94
asg10
(lp95
S'rag'
p96
aS'crumb'
p97
aS'meat'
p98
aS'wood'
p99
assS'percent'
p100
(dp101
g4
(lp102
S'hundred'
p103
aS'number'
p104
aS'part'
p105
aS'math'
p106
asg10
(lp107
S'amount'
p108
aS'sign'
p109
aS'portion'
p110
aS'test'
p111
assS'cell'
p112
(dp113
g4
(lp114
S'biology'
p115
aS'blood'
p116
aS'block'
p117
aS'body'
p118
asg10
(lp119
S'organ'
p120
aS'nucleus'
p121
aS'life'
p122
aS'wall'
p123
assS'board'
p124
(dp125
g4
(lp126
S'wood'
p127
aS'chalk'
p128
aS'surf'
p129
aS'room'
p130
asg10
(lp131
S'game'
p132
aS'nail'
p133
aS'school'
p134
aS'plane'
p135
assS'percentage'
p136
(dp137
g4
(lp138
S'number'
p139
aS'part'
p140
aS'math'
p141
aS'amount'
p142
asg10
(lp143
S'hundred'
p144
aS'average'
p145
aS'sale'
p146
aS'point'
p147
assS'head'
p148
(dp149
g4
(lp150
S'hair'
p151
aS'brain'
p152
aS'toe'
p153
aS'tail'
p154
asg10
(lp155
S'neck'
p156
aS'pot'
p157
aS'hat'
p158
aS'top'
p159
assS'bottle'
p160
(dp161
g4
(lp162
S'beer'
p163
aS'coke'
p164
aS'glass'
p165
aS'wine'
p166
asg10
(lp167
S'jar'
p168
aS'cork'
p169
aS'soda'
p170
aS'liquor'
p171
assS'cabinet'
p172
(dp173
g4
(lp174
S'kitchen'
p175
aS'door'
p176
aS'shelf'
p177
aS'wood'
p178
asg10
(lp179
S'closet'
p180
aS'plate'
p181
aS'counter'
p182
aS'file'
p183
assS'liver'
p184
(dp185
g4
(lp186
S'onion'
p187
aS'meat'
p188
aS'kidney'
p189
aS'organ'
p190
asg10
(lp191
S'body'
p192
aS'chicken'
p193
aS'stomach'
p194
aS'cat'
p195
assS'inertia'
p196
(dp197
g4
(lp198
S'force'
p199
aS'movement'
p200
aS'energy'
p201
aS'physics'
p202
asg10
(lp203
S'gravity'
p204
aS'science'
p205
aS'motion'
p206
aS'space'
p207
assS'case'
p208
(dp209
g4
(lp210
S'court'
p211
aS'study'
p212
aS'briefcase'
p213
aS'box'
p214
asg10
(lp215
S'report'
p216
aS'history'
p217
aS'trial'
p218
aS'situation'
p219
assS'polyester'
p220
(dp221
g4
(lp222
S'cotton'
p223
aS'clothes'
p224
aS'pants'
p225
aS'silk'
p226
asg10
(lp227
S'suit'
p228
aS'shirt'
p229
aS'uniform'
p230
aS'cloth'
p231
assS'yard'
p232
(dp233
g4
(lp234
S'foot'
p235
aS'lawn'
p236
aS'fence'
p237
aS'back'
p238
asg10
(lp239
S'meter'
p240
aS'mile'
p241
aS'inch'
p242
aS'field'
p243
assS'socket'
p244
(dp245
g4
(lp246
S'plug'
p247
aS'light'
p248
aS'eye'
p249
aS'wrench'
p250
asg10
(lp251
S'arm'
p252
aS'ball'
p253
aS'bulb'
p254
aS'wall'
p255
assS'biscuit'
p256
(dp257
g4
(lp258
S'bread'
p259
aS'roll'
p260
aS'bun'
p261
aS'butter'
p262
asg10
(lp263
S'dough'
p264
aS'flour'
p265
aS'cracker'
p266
aS'sausage'
p267
assS'weather'
p268
(dp269
g4
(lp270
S'climate'
p271
aS'rain'
p272
aS'temperature'
p273
aS'sun'
p274
asg10
(lp275
S'cloud'
p276
aS'report'
p277
aS'snow'
p278
aS'news'
p279
assS'drill'
p280
(dp281
g4
(lp282
S'bit'
p283
aS'hole'
p284
aS'fire'
p285
aS'tool'
p286
asg10
(lp287
S'oil'
p288
aS'team'
p289
aS'construction'
p290
aS'teeth'
p291
assS'team'
p292
(dp293
g4
(lp294
S'football'
p295
aS'sport'
p296
aS'group'
p297
aS'baseball'
p298
asg10
(lp299
S'work'
p300
aS'player'
p301
aS'basketball'
p302
aS'club'
p303
assS'newspaper'
p304
(dp305
g4
(lp306
S'article'
p307
aS'magazine'
p308
aS'news'
p309
aS'print'
p310
asg10
(lp311
S'boy'
p312
aS'ad'
p313
aS'ink'
p314
aS'journal'
p315
assS'dot'
p316
(dp317
g4
(lp318
S'period'
p319
aS'spot'
p320
aS'point'
p321
aS'line'
p322
asg10
(lp323
S'pen'
p324
aS'pencil'
p325
aS'game'
p326
aS'paper'
p327
ass.