(dp1
S'AGENCY'
p2
(lp3
(S'COMPANY'
p4
F13
tp5
a(S'WORK'
p6
F12
tp7
a(S'BUSINESS'
p8
F10
tp9
a(S'INSURANCE'
p10
F10
tp11
a(S'OFFICE'
p12
F9
tp13
a(S'GOVERNMENT'
p14
F6
tp15
a(S'PLACE'
p16
F6
tp17
a(S'CORPORATION'
p18
F5
tp19
a(S'JOB'
p20
F4
tp21
a(S'BUILDING'
p22
F2
tp23
a(S'TALENT'
p24
F2
tp25
a(S'BUREAU'
p26
F2
tp27
a(S'GROUP'
p28
F2
tp29
a(S'EMPLOYMENT'
p30
F2
tp31
asS'SEAM'
p32
(lp33
(S'STITCH'
p34
F21
tp35
a(S'PANTS'
p36
F15
tp37
a(S'DRESS'
p38
F15
tp39
a(S'HEM'
p40
F11
tp41
a(S'CLOTHES'
p42
F6
tp43
a(S'THREAD'
p44
F5
tp45
a(S'ZIPPER'
p46
F3
tp47
a(S'BUTTON'
p48
F2
tp49
a(S'CREASE'
p50
F2
tp51
a(S'LINE'
p52
F2
tp53
asS'ORGAN'
p54
(lp55
(S'PIANO'
p56
F38
tp57
a(S'DONOR'
p58
F27
tp59
a(S'HEART'
p60
F22
tp61
a(S'BODY'
p62
F12
tp63
a(S'MUSIC'
p64
F7
tp65
a(S'TISSUE'
p66
F4
tp67
a(S'CHURCH'
p68
F4
tp69
a(S'INSTRUMENT'
p70
F3
tp71
a(S'KIDNEY'
p72
F2
tp73
asS'FLASK'
p74
(lp75
(S'WINE'
p76
F18
tp77
a(S'BOTTLE'
p78
F14
tp79
a(S'CHEMISTRY'
p80
F13
tp81
a(S'WHISKEY'
p82
F11
tp83
a(S'BEAKER'
p84
F8
tp85
a(S'LIQUOR'
p86
F7
tp87
a(S'GLASS'
p88
F7
tp89
a(S'BOOZE'
p90
F5
tp91
a(S'WATER'
p92
F5
tp93
a(S'JAR'
p94
F4
tp95
a(S'LAB'
p96
F4
tp97
a(S'OIL'
p98
F2
tp99
a(S'CONTAINER'
p100
F2
tp101
a(S'JUG'
p102
F2
tp103
a(S'BEER'
p104
F2
tp105
asS'PITCHER'
p106
(lp107
(S'BASEBALL'
p108
F36
tp109
a(g104
F25
tp110
a(S'CATCHER'
p111
F13
tp112
a(S'TEA'
p113
F11
tp114
a(g92
F11
tp115
a(S'LEMONADE'
p116
F6
tp117
a(S'BALL'
p118
F4
tp119
a(g100
F4
tp120
a(S'LIQUID'
p121
F2
tp122
a(S'PLAYER'
p123
F2
tp124
asS'LINT'
p125
(lp126
(S'DUST'
p127
F30
tp128
a(S'DRYER'
p129
F17
tp130
a(S'FUZZ'
p131
F12
tp132
a(g42
F11
tp133
a(S'DIRT'
p134
F10
tp135
a(S'POCKET'
p136
F8
tp137
a(S'BRUSH'
p138
F8
tp139
a(g118
F6
tp140
a(S'LAUNDRY'
p141
F5
tp142
a(S'SHIRT'
p143
F4
tp144
a(S'FABRIC'
p145
F2
tp146
a(S'SCREEN'
p147
F2
tp148
a(S'WHITE'
p149
F2
tp150
a(S'WASHER'
p151
F2
tp152
asS'OUNCE'
p153
(lp154
(S'POUND'
p155
F87
tp156
a(S'PINT'
p157
F12
tp158
a(S'POT'
p159
F11
tp160
a(S'WEIGHT'
p161
F10
tp162
a(S'MEASURE'
p163
F10
tp164
a(S'GALLON'
p165
F3
tp166
a(S'LID'
p167
F2
tp168
a(g121
F2
tp169
a(S'LIGHT'
p170
F2
tp171
a(S'FLUID'
p172
F2
tp173
a(S'QUART'
p174
F2
tp175
asS'LIMIT'
p176
(lp177
(S'SPEED'
p178
F17
tp179
a(S'MAXIMUM'
p180
F13
tp181
a(S'END'
p182
F10
tp183
a(S'BOUNDARY'
p184
F10
tp185
a(S'AMOUNT'
p186
F9
tp187
a(S'INFINITY'
p188
F6
tp189
a(S'CALCULUS'
p190
F4
tp191
a(S'TIME'
p192
F4
tp193
a(S'RESTRICTION'
p194
F3
tp195
a(S'CAPACITY'
p196
F2
tp197
a(S'RULE'
p198
F2
tp199
asS'BOARD'
p200
(lp201
(S'WOOD'
p202
F18
tp203
a(S'CHALK'
p204
F17
tp205
a(S'SURF'
p206
F16
tp207
a(S'ROOM'
p208
F11
tp209
a(S'GAME'
p210
F5
tp211
a(S'NAIL'
p212
F3
tp213
a(S'SCHOOL'
p214
F3
tp215
a(S'PLANE'
p216
F3
tp217
a(S'SHIP'
p218
F3
tp219
a(S'TRAIN'
p220
F2
tp221
a(S'COMMITTEE'
p222
F2
tp223
a(S'TEAM'
p224
F2
tp225
a(S'TABLE'
p226
F2
tp227
a(S'BULLETIN'
p228
F2
tp229
a(S'BOAT'
p230
F2
tp231
a(S'SKATE'
p232
F2
tp233
asS'DRILL'
p234
(lp235
(S'BIT'
p236
F21
tp237
a(S'HOLE'
p238
F15
tp239
a(S'FIRE'
p240
F13
tp241
a(S'TOOL'
p242
F13
tp243
a(S'SERGEANT'
p244
F10
tp245
a(S'NOISE'
p246
F7
tp247
a(S'DENTIST'
p248
F7
tp249
a(g98
F4
tp250
a(g224
F4
tp251
a(S'CONSTRUCTION'
p252
F3
tp253
a(S'TEETH'
p254
F3
tp255
a(g6
F2
tp256
a(S'QUESTION'
p257
F2
tp258
a(S'MACHINE'
p259
F2
tp260
a(S'BAND'
p261
F2
tp262
a(g202
F2
tp263
asS'NEUTRON'
p264
(lp265
(S'ATOM'
p266
F35
tp267
a(S'PROTON'
p268
F31
tp269
a(S'ELECTRON'
p270
F30
tp271
a(S'SCIENCE'
p272
F10
tp273
a(S'BOMB'
p274
F5
tp275
a(g80
F5
tp276
a(S'NEUTRAL'
p277
F4
tp278
a(S'SPACE'
p279
F2
tp280
a(S'NUCLEUS'
p281
F2
tp282
a(S'PHYSICS'
p283
F2
tp284
asS'HIP'
p285
(lp286
(S'BONE'
p287
F31
tp288
a(S'WAIST'
p289
F19
tp290
a(S'LEG'
p291
F18
tp292
a(S'THIGH'
p293
F11
tp294
a(S'JOINT'
p295
F9
tp296
a(g62
F5
tp297
a(g136
F4
tp298
a(S'FAT'
p299
F3
tp300
a(S'OKAY'
p301
F2
tp302
a(S'JEANS'
p303
F2
tp304
a(S'SHAPE'
p305
F2
tp306
a(S'ELBOW'
p307
F2
tp308
a(S'SIDE'
p309
F2
tp310
asS'HALLWAY'
p311
(lp312
(S'CORRIDOR'
p313
F23
tp314
a(S'DOOR'
p315
F17
tp316
a(g214
F13
tp317
a(S'PASSAGE'
p318
F10
tp319
a(S'DORM'
p320
F10
tp321
a(g208
F6
tp322
a(S'TUNNEL'
p323
F5
tp324
a(g22
F4
tp325
a(S'HOUSE'
p326
F3
tp327
a(S'CLOSET'
p328
F2
tp329
a(S'ENTRANCE'
p330
F2
tp331
a(S'DOORWAY'
p332
F2
tp333
a(S'PATH'
p334
F2
tp335
asS'VODKA'
p336
(lp337
(S'ALCOHOL'
p338
F17
tp339
a(S'ORANGE JUICE'
p340
F12
tp341
a(S'GIN'
p342
F11
tp343
a(g86
F10
tp344
a(S'TONIC'
p345
F5
tp346
a(S'RUM'
p347
F5
tp348
a(S'RUSSIA'
p349
F4
tp350
a(g78
F3
tp351
a(S'ICE'
p352
F2
tp353
a(g82
F2
tp354
a(g104
F2
tp355
asS'BARRIER'
p356
(lp357
(S'WALL'
p358
F49
tp359
a(S'BLOCKADE'
p360
F22
tp361
a(S'REEF'
p362
F21
tp363
a(S'BLOCK'
p364
F14
tp365
a(S'OBSTACLE'
p366
F3
tp367
a(S'SOUND'
p368
F2
tp369
a(S'BRIDGE'
p370
F2
tp371
a(S'FENCE'
p372
F2
tp373
a(S'ROAD'
p374
F2
tp375
a(S'GATE'
p376
F2
tp377
a(g52
F2
tp378
asS'UTENSIL'
p379
(lp380
(S'FORK'
p381
F39
tp382
a(g242
F16
tp383
a(S'SPOON'
p384
F14
tp385
a(S'KITCHEN'
p386
F10
tp387
a(S'KNIFE'
p388
F7
tp389
a(S'SPATULA'
p390
F5
tp391
a(g70
F3
tp392
a(S'PEN'
p393
F3
tp394
a(S'PAN'
p395
F3
tp396
a(S'SILVERWARE'
p397
F2
tp398
asS'TENNIS'
p399
(lp400
(g118
F43
tp401
a(S'RACKET'
p402
F26
tp403
a(S'COURT'
p404
F21
tp405
a(g210
F13
tp406
a(S'SPORT'
p407
F9
tp408
a(S'GOLF'
p409
F5
tp410
a(S'RACQUETBALL'
p411
F4
tp412
a(g123
F2
tp413
a(S'MATCH'
p414
F2
tp415
asS'CHISEL'
p416
(lp417
(S'HAMMER'
p418
F63
tp419
a(S'CHIP'
p420
F14
tp421
a(S'SCULPTURE'
p422
F10
tp423
a(g242
F10
tp424
a(S'STONE'
p425
F7
tp426
a(S'CUT'
p427
F7
tp428
a(g202
F7
tp429
a(g388
F5
tp430
a(S'ROCK'
p431
F4
tp432
a(S'AX'
p433
F3
tp434
a(g381
F2
tp435
a(S'ARTIST'
p436
F2
tp437
a(g6
F2
tp438
a(S'MARBLE'
p439
F2
tp440
a(g212
F2
tp441
a(S'STICK'
p442
F2
tp443
a(S'SAW'
p444
F2
tp445
a(g364
F2
tp446
asS'SPHERE'
p447
(lp448
(S'CIRCLE'
p449
F39
tp450
a(S'GLOBE'
p451
F19
tp452
a(S'WORLD'
p453
F18
tp454
a(S'EARTH'
p455
F15
tp456
a(g305
F4
tp457
a(g118
F2
tp458
a(S'GEOMETRY'
p459
F2
tp460
a(S'SQUARE'
p461
F2
tp462
asS'SUMMIT'
p463
(lp464
(S'PEAK'
p465
F22
tp466
a(S'MEETING'
p467
F18
tp468
a(S'TOP'
p469
F17
tp470
a(S'MOUNTAIN'
p471
F16
tp472
a(S'CONFERENCE'
p473
F3
tp474
a(g404
F2
tp475
a(S'APEX'
p476
F2
tp477
a(S'PAPER'
p478
F2
tp479
a(S'HORIZON'
p480
F2
tp481
a(S'CLIFF'
p482
F2
tp483
asS'FINGER'
p484
(lp485
(S'HAND'
p486
F53
tp487
a(S'THUMB'
p488
F28
tp489
a(S'FINGERNAIL'
p490
F19
tp491
a(S'TOE'
p492
F18
tp493
a(S'POINT'
p494
F15
tp495
a(S'RING'
p496
F13
tp497
a(S'DIGIT'
p498
F6
tp499
a(S'TIP'
p500
F4
tp501
a(S'PAINT'
p502
F3
tp503
a(S'NOSE'
p504
F2
tp505
a(S'BIRD'
p506
F2
tp507
asS'NAVIGATOR'
p508
(lp509
(g218
F28
tp510
a(S'PILOT'
p511
F28
tp512
a(S'AIRPLANE'
p513
F25
tp514
a(g230
F14
tp515
a(S'SAILOR'
p516
F5
tp517
a(S'SEA'
p518
F5
tp519
a(S'FLIGHT'
p520
F3
tp521
a(S'LEADER'
p522
F3
tp523
a(S'DIRECTOR'
p524
F3
tp525
a(S'CAPTAIN'
p526
F3
tp527
a(S'DRIVER'
p528
F2
tp529
a(S'GUIDE'
p530
F2
tp531
asS'POUCH'
p532
(lp533
(S'KANGAROO'
p534
F59
tp535
a(g136
F46
tp536
a(S'PURSE'
p537
F23
tp538
a(S'BAG'
p539
F18
tp540
a(S'SACK'
p541
F12
tp542
a(S'DOG'
p543
F3
tp544
a(S'COUCH'
p545
F3
tp546
a(S'STOMACH'
p547
F2
tp548
a(S'PIPE'
p549
F2
tp550
a(S'WALLET'
p551
F2
tp552
asS'MAYOR'
p553
(lp554
(S'CITY'
p555
F24
tp556
a(S'GOVERNOR'
p557
F13
tp558
a(S'TOWN'
p559
F11
tp560
a(g522
F10
tp561
a(g14
F7
tp562
a(S'POLITICIAN'
p563
F5
tp564
a(S'POLITICS'
p565
F5
tp566
a(S'SENATOR'
p567
F5
tp568
a(S'MAN'
p569
F4
tp570
a(S'POWER'
p571
F3
tp572
a(g12
F3
tp573
a(S'PERSON'
p574
F3
tp575
a(S'CHIEF'
p576
F3
tp577
a(S'PRESIDENT'
p578
F2
tp579
a(S'RIBBON'
p580
F2
tp581
asS'PLUG'
p582
(lp583
(S'OUTLET'
p584
F22
tp585
a(S'ELECTRICITY'
p586
F19
tp587
a(S'SOCKET'
p588
F16
tp589
a(S'CORD'
p590
F10
tp591
a(g170
F5
tp592
a(S'WIRE'
p593
F3
tp594
a(g358
F3
tp595
a(S'LAMP'
p596
F3
tp597
a(S'TUB'
p598
F3
tp599
a(g504
F3
tp600
a(S'TELEVISION'
p601
F2
tp602
a(S'EXTENSION'
p603
F2
tp604
a(S'APPLIANCE'
p605
F2
tp606
a(S'CORK'
p607
F2
tp608
a(S'IRON'
p609
F2
tp610
a(g238
F2
tp611
a(g230
F2
tp612
asS'STYLE'
p613
(lp614
(S'FASHION'
p615
F30
tp616
a(S'HAIR'
p617
F22
tp618
a(S'CLASS'
p619
F11
tp620
a(S'PERSONALITY'
p621
F10
tp622
a(g42
F10
tp623
a(S'WAY'
p624
F9
tp625
a(S'GRACE'
p626
F6
tp627
a(S'FORM'
p628
F5
tp629
a(S'LIFE'
p630
F4
tp631
a(S'MANNER'
p632
F4
tp633
a(S'MODEL'
p634
F4
tp635
a(S'EXPRESSION'
p636
F3
tp637
a(S'METHOD'
p638
F3
tp639
a(S'FAD'
p640
F3
tp641
a(g38
F2
tp642
a(S'TYPE'
p643
F2
tp644
asS'SCRAP'
p645
(lp646
(g478
F13
tp647
a(S'PIECE'
p648
F13
tp649
a(S'JUNK'
p650
F11
tp651
a(S'METAL'
p652
F10
tp653
a(g236
F5
tp654
a(S'TRASH'
p655
F4
tp656
a(S'FOOD'
p657
F3
tp658
a(S'BOOK'
p659
F3
tp660
a(S'RAG'
p661
F2
tp662
a(S'CRUMB'
p663
F2
tp664
a(S'MEAT'
p665
F2
tp666
a(g202
F2
tp667
asS'PERCENT'
p668
(lp669
(S'HUNDRED'
p670
F28
tp671
a(S'NUMBER'
p672
F12
tp673
a(S'PART'
p674
F12
tp675
a(S'MATH'
p676
F12
tp677
a(S'GRADE'
p678
F9
tp679
a(S'TAX'
p680
F4
tp681
a(g186
F4
tp682
a(S'MONEY'
p683
F3
tp684
a(S'SIGN'
p685
F3
tp686
a(S'PORTION'
p687
F3
tp688
a(S'TEST'
p689
F3
tp690
a(S'CHANCE'
p691
F2
tp692
a(g648
F2
tp693
asS'BOSS'
p694
(lp695
(S'EMPLOYEE'
p696
F23
tp697
a(S'EMPLOYER'
p698
F19
tp699
a(g569
F16
tp700
a(S'MANAGER'
p701
F10
tp702
a(g20
F10
tp703
a(g6
F7
tp704
a(S'HEAD'
p705
F6
tp706
a(g576
F6
tp707
a(S'AUTHORITY'
p708
F5
tp709
a(S'WORKER'
p710
F4
tp711
a(S'MEAN'
p712
F4
tp713
a(S'SECRETARY'
p714
F4
tp715
a(S'SUPERVISOR'
p716
F2
tp717
a(S'WIFE'
p718
F2
tp719
a(S'EXECUTIVE'
p720
F2
tp721
a(g522
F2
tp722
asS'HAY'
p723
(lp724
(S'HORSE'
p725
F32
tp726
a(S'STACK'
p727
F23
tp728
a(S'BARN'
p729
F12
tp730
a(S'STRAW'
p731
F10
tp732
a(S'FARM'
p733
F9
tp734
a(S'FEVER'
p735
F7
tp736
a(S'NEEDLE'
p737
F6
tp738
a(S'FIELD'
p739
F4
tp740
a(g381
F3
tp741
a(S'GRASS'
p742
F3
tp743
a(S'WHEAT'
p744
F2
tp745
a(S'LOFT'
p746
F2
tp747
a(S'PITCHFORK'
p748
F2
tp749
a(S'ROLL'
p750
F2
tp751
asg632
(lp752
(g624
F50
tp753
a(g613
F19
tp754
a(S'BEHAVIOR'
p755
F15
tp756
a(g226
F11
tp757
a(g198
F4
tp758
a(S'ETIQUETTE'
p759
F3
tp760
a(g326
F3
tp761
a(S'ATTITUDE'
p762
F3
tp763
a(S'ACTION'
p764
F3
tp765
a(S'APPEARANCE'
p766
F2
tp767
a(g638
F2
tp768
asS'HAT'
p769
(lp770
(g705
F66
tp771
a(S'COAT'
p772
F19
tp773
a(S'CAP'
p774
F11
tp775
a(g617
F11
tp776
a(S'CAT'
p777
F9
tp778
a(g469
F6
tp779
a(g108
F6
tp780
a(S'RACK'
p781
F4
tp782
a(S'BOX'
p783
F2
tp784
a(S'SUN'
p785
F2
tp786
a(g569
F2
tp787
asS'SHOULDER'
p788
(lp789
(S'ARM'
p790
F66
tp791
a(S'PAD'
p792
F16
tp793
a(S'BLADE'
p794
F12
tp795
a(g374
F11
tp796
a(S'NECK'
p797
F6
tp798
a(g62
F5
tp799
a(g705
F5
tp800
a(S'SUPPORT'
p801
F5
tp802
a(g287
F4
tp803
a(S'STRAP'
p804
F3
tp805
a(g307
F3
tp806
a(g539
F2
tp807
a(S'MUSCLE'
p808
F2
tp809
asg588
(lp810
(g582
F24
tp811
a(g170
F24
tp812
a(S'EYE'
p813
F22
tp814
a(S'WRENCH'
p815
F17
tp816
a(g790
F5
tp817
a(g118
F4
tp818
a(S'BULB'
p819
F4
tp820
a(g358
F3
tp821
a(g295
F3
tp822
a(g584
F3
tp823
a(g590
F2
tp824
a(g307
F2
tp825
asg372
(lp826
(S'PICKET'
p827
F19
tp828
a(S'YARD'
p829
F13
tp830
a(g376
F12
tp831
a(S'POST'
p832
F10
tp833
a(g593
F7
tp834
a(g543
F5
tp835
a(S'CHAIN'
p836
F4
tp837
a(g358
F4
tp838
a(S'RAIL'
p839
F3
tp840
a(g356
F3
tp841
a(g149
F3
tp842
a(S'CAGE'
p843
F3
tp844
a(S'GUARD'
p845
F2
tp846
a(S'SWORD'
p847
F2
tp848
asS'DRAWER'
p849
(lp850
(S'DRESSER'
p851
F39
tp852
a(S'CHEST'
p853
F16
tp854
a(g42
F16
tp855
a(S'DESK'
p856
F14
tp857
a(g328
F3
tp858
a(S'CABINET'
p859
F3
tp860
a(g26
F3
tp861
a(S'STORAGE'
p862
F2
tp863
asS'WEATHER'
p864
(lp865
(S'CLIMATE'
p866
F25
tp867
a(S'RAIN'
p868
F21
tp869
a(S'TEMPERATURE'
p870
F12
tp871
a(g785
F10
tp872
a(S'STORM'
p873
F7
tp874
a(S'CLOUD'
p875
F5
tp876
a(S'REPORT'
p877
F3
tp878
a(S'SNOW'
p879
F2
tp880
a(S'NEWS'
p881
F2
tp882
asS'INDUSTRY'
p883
(lp884
(g8
F26
tp885
a(S'FACTORY'
p886
F23
tp887
a(g6
F15
tp888
a(g259
F15
tp889
a(g683
F6
tp890
a(S'STEEL'
p891
F5
tp892
a(g4
F5
tp893
a(g22
F3
tp894
a(S'PLANT'
p895
F3
tp896
a(S'POLLUTION'
p897
F3
tp898
a(g98
F2
tp899
a(g18
F2
tp900
a(S'LABOR'
p901
F2
tp902
a(S'SMOKE'
p903
F2
tp904
asS'CERAMIC'
p905
(lp906
(S'POTTERY'
p907
F33
tp908
a(S'TILE'
p909
F22
tp910
a(S'BOWL'
p911
F10
tp912
a(S'VASE'
p913
F10
tp914
a(g88
F7
tp915
a(S'PORCELAIN'
p916
F4
tp917
a(S'CLAY'
p918
F4
tp919
a(S'DISH'
p920
F3
tp921
a(S'ART'
p922
F2
tp923
a(S'STATUE'
p924
F2
tp925
a(S'TRAY'
p926
F2
tp927
asS'IDENTIFICATION'
p928
(lp929
(S'CARD'
p930
F42
tp931
a(S'LICENSE'
p932
F14
tp933
a(g672
F14
tp934
a(S'PICTURE'
p935
F10
tp936
a(S'NAME'
p937
F8
tp938
a(g574
F5
tp939
a(S'PROOF'
p940
F4
tp941
a(S'POLICE'
p942
F2
tp943
a(S'PHOTO'
p944
F2
tp945
a(S'IDENTITY'
p946
F2
tp947
asS'LIVER'
p948
(lp949
(S'ONION'
p950
F22
tp951
a(g665
F13
tp952
a(g72
F12
tp953
a(g54
F11
tp954
a(g338
F11
tp955
a(g60
F6
tp956
a(g62
F5
tp957
a(g657
F5
tp958
a(S'CHICKEN'
p959
F4
tp960
a(g547
F3
tp961
a(g777
F3
tp962
a(S'TURKEY'
p963
F2
tp964
a(S'COW'
p965
F2
tp966
asg78
(lp967
(g104
F20
tp968
a(S'COKE'
p969
F19
tp970
a(g88
F13
tp971
a(g76
F11
tp972
a(g774
F9
tp973
a(g90
F9
tp974
a(g94
F5
tp975
a(g607
F4
tp976
a(g92
F4
tp977
a(S'SODA'
p978
F4
tp979
a(g86
F3
tp980
a(S'OPENER'
p981
F3
tp982
a(S'BABY'
p983
F3
tp984
a(g469
F3
tp985
a(g338
F2
tp986
a(S'MEDICINE'
p987
F2
tp988
a(S'PEPSI'
p989
F2
tp990
asg108
(lp991
(S'BAT'
p992
F46
tp993
a(g407
F19
tp994
a(g210
F16
tp995
a(S'FOOTBALL'
p996
F10
tp997
a(S'BASKETBALL'
p998
F5
tp999
a(g123
F4
tp1000
a(S'GLOVE'
p1001
F4
tp1002
a(g739
F4
tp1003
a(g774
F4
tp1004
a(g769
F3
tp1005
a(g118
F2
tp1006
a(S'BORING'
p1007
F2
tp1008
a(g224
F2
tp1009
a(S'DIAMOND'
p1010
F2
tp1011
a(S'BASE'
p1012
F2
tp1013
a(g930
F2
tp1014
asS'SKIRT'
p1015
(lp1016
(g38
F46
tp1017
a(S'BLOUSE'
p1018
F31
tp1019
a(g143
F13
tp1020
a(g36
F11
tp1021
a(S'GIRL'
p1022
F5
tp1023
a(g42
F5
tp1024
a(S'LEGS'
p1025
F4
tp1026
a(g469
F3
tp1027
a(S'LENGTH'
p1028
F3
tp1029
a(S'SHORTS'
p1030
F2
tp1031
a(g40
F2
tp1032
asg584
(lp1033
(g582
F33
tp1034
a(g586
F25
tp1035
a(S'INLET'
p1036
F15
tp1037
a(S'MAP'
p1038
F13
tp1039
a(S'STORE'
p1040
F8
tp1041
a(g588
F8
tp1042
a(g170
F4
tp1043
a(g571
F3
tp1044
a(S'EXIT'
p1045
F3
tp1046
a(g358
F2
tp1047
a(g590
F2
tp1048
as.